; Function Attrs: mustprogress nounwind uwtable
define hidden noundef zeroext i1 @_ZN14ZRelocateQueue5pruneEv(ptr noundef nonnull align 8 dereferenceable(120) %0) local_unnamed_addr #1 align 2 {
  %2 = getelementptr inbounds i8, ptr %0, i64 88
  %3 = load i32, ptr %2, align 8
  %4 = icmp sgt i32 %3, 0
  br i1 %4, label %.lr.ph, label %._crit_edge.thread

.lr.ph:                                           ; preds = %1
  %5 = getelementptr inbounds i8, ptr %0, i64 96
  br label %6

6:                                                ; preds = %.lr.ph, %_ZN17GrowableArrayViewIP11ZForwardingE9delete_atEi.exit
  %.0711 = phi i32 [ 0, %.lr.ph ], [ %.1, %_ZN17GrowableArrayViewIP11ZForwardingE9delete_atEi.exit ]
  %.0810 = phi i1 [ false, %.lr.ph ], [ %.19, %_ZN17GrowableArrayViewIP11ZForwardingE9delete_atEi.exit ]
  %7 = load ptr, ptr %5, align 8
  %8 = sext i32 %.0711 to i64
  %9 = getelementptr inbounds ptr, ptr %7, i64 %8
  %10 = load ptr, ptr %9, align 8
  %11 = tail call noundef zeroext i1 @_ZNK11ZForwarding7is_doneEv(ptr noundef nonnull align 8 dereferenceable(184) %10) #14
  br i1 %11, label %12, label %22

12:                                               ; preds = %6
  %13 = load i32, ptr %2, align 8
  %14 = add nsw i32 %13, -1
  store i32 %14, ptr %2, align 8
  %15 = icmp sgt i32 %14, %.0711
  br i1 %15, label %16, label %_ZN17GrowableArrayViewIP11ZForwardingE9delete_atEi.exit

16:                                               ; preds = %12
  %17 = load ptr, ptr %5, align 8
  %18 = sext i32 %14 to i64
  %19 = getelementptr inbounds ptr, ptr %17, i64 %18
  %20 = load ptr, ptr %19, align 8
  %21 = getelementptr inbounds ptr, ptr %17, i64 %8
  store ptr %20, ptr %21, align 8
  br label %_ZN17GrowableArrayViewIP11ZForwardingE9delete_atEi.exitthread-pre-split

22:                                               ; preds = %6
  %23 = add nsw i32 %.0711, 1
  br label %_ZN17GrowableArrayViewIP11ZForwardingE9delete_atEi.exitthread-pre-split

_ZN17GrowableArrayViewIP11ZForwardingE9delete_atEi.exitthread-pre-split: ; preds = %22, %16
  %.19.ph = phi i1 [ true, %16 ], [ %.0810, %22 ]
  %.1.ph = phi i32 [ %.0711, %16 ], [ %23, %22 ]
  %.pr.pr = load i32, ptr %2, align 8
  br label %_ZN17GrowableArrayViewIP11ZForwardingE9delete_atEi.exit

_ZN17GrowableArrayViewIP11ZForwardingE9delete_atEi.exit: ; preds = %_ZN17GrowableArrayViewIP11ZForwardingE9delete_atEi.exitthread-pre-split, %12
  %.pr = phi i32 [ %.pr.pr, %_ZN17GrowableArrayViewIP11ZForwardingE9delete_atEi.exitthread-pre-split ], [ %14, %12 ]
  %.19 = phi i1 [ %.19.ph, %_ZN17GrowableArrayViewIP11ZForwardingE9delete_atEi.exitthread-pre-split ], [ true, %12 ]
  %.1 = phi i32 [ %.1.ph, %_ZN17GrowableArrayViewIP11ZForwardingE9delete_atEi.exitthread-pre-split ], [ %.0711, %12 ]
  %24 = icmp slt i32 %.1, %.pr
  br i1 %24, label %6, label %._crit_edge, !llvm.loop !7

._crit_edge:                                      ; preds = %_ZN17GrowableArrayViewIP11ZForwardingE9delete_atEi.exit
  %25 = icmp eq i32 %.pr, 0
  br i1 %25, label %26, label %._crit_edge.thread

26:                                               ; preds = %._crit_edge
  %27 = getelementptr inbounds i8, ptr %0, i64 116
  %28 = tail call noundef i32 asm sideeffect "lock xaddl $0,($2)", "=r,0,r,~{cc},~{memory},~{dirflag},~{fpsr},~{flags}"(i32 -1, ptr nonnull %27) #14, !srcloc !6
  br label %._crit_edge.thread

._crit_edge.thread:                               ; preds = %._crit_edge, %26, %1
  %.0 = phi i1 [ false, %1 ], [ %.19, %26 ], [ %.19, %._crit_edge ]
  ret i1 %.0
}